; Function Attrs: mustprogress nounwind uwtable
define hidden void @_ZN10ZStatCycleC2Ev(ptr noundef nonnull align 8 dereferenceable(376) %0) unnamed_addr #0 align 2 {
  tail call void @llvm.memset.p0.i64(ptr noundef nonnull align 8 dereferenceable(40) %0, i8 0, i64 40, i1 false)
  tail call void @_ZN13PlatformMutexC1Ev(ptr noundef nonnull align 8 dereferenceable(40) %0) #20
  %2 = getelementptr inbounds i8, ptr %0, i64 40
  %3 = getelementptr inbounds i8, ptr %0, i64 80
  tail call void @llvm.memset.p0.i64(ptr noundef nonnull align 8 dereferenceable(40) %2, i8 0, i64 40, i1 false)
  tail call void @_ZN9NumberSeqC1Ed(ptr noundef nonnull align 8 dereferenceable(72) %3, double noundef 0x3FE6666666666666) #20
  %4 = getelementptr inbounds i8, ptr %0, i64 152
  tail call void @_ZN9NumberSeqC1Ed(ptr noundef nonnull align 8 dereferenceable(72) %4, double noundef 0x3FE6666666666666) #20
  %5 = getelementptr inbounds i8, ptr %0, i64 224
  tail call void @_ZN9NumberSeqC1Ed(ptr noundef nonnull align 8 dereferenceable(72) %5, double noundef 0x3FE6666666666666) #20
  %6 = getelementptr inbounds i8, ptr %0, i64 296
  tail call void @_ZN9NumberSeqC1Ed(ptr noundef nonnull align 8 dereferenceable(72) %6, double noundef 0x3FE6666666666666) #20
  %7 = getelementptr inbounds i8, ptr %0, i64 368
  store double 0.000000e+00, ptr %7, align 8
  ret void
}